MPASM 5.77               PRUEBAPROYECTO2.ASM   10-27-2020  2:00:09         PAGE  1


LOC  OBJECT CODE     LINE SOURCE TEXT
  VALUE

                      00001  ;*******************************************************************************
                      00002 ;
                      00003 ;   Filename:       Etch_a_sketch -> Principal.asm
                      00004 ;   Date:                   8/10/2020
                      00005 ;   File Version:           v.1
                      00006 ;   Author:                 Noel Prado
                      00007 ;   Company:        UVG
                      00008 ;   Description:            Proyecto 2 etch a sketch
                      00009 ;
                      00010 ;*******************************************************************************  
                      00011 
                      00012     #include "p16f887.inc"
                      00001         LIST
                      00002 
                      00003 ;==========================================================================
                      00004 ; Build date : Nov 22 2017
                      00005 ;  MPASM PIC16F887 processor include
                      00006 ; 
                      00007 ;  (c) Copyright 1999-2017 Microchip Technology, All rights reserved
                      00008 ;==========================================================================
                      00009 
                      00810         LIST
                      00013 
                      00014 ; CONFIG1
                      00015 ; __config 0xE0D5
2007   20D4           00016     __CONFIG _CONFIG1, _FOSC_INTRC_NOCLKOUT & _WDTE_OFF & _PWRTE_OFF & _MCLRE_OFF & _CP_OFF & _CPD_OFF &
                             _BOREN_OFF & _IESO_OFF & _FCMEN_OFF & _LVP_OFF
                      00017 ; CONFIG2
                      00018 ; __config 0xFFFF
2008   3FFF           00019     __CONFIG _CONFIG2, _BOR4V_BOR40V & _WRT_OFF
                      00020     
Warning[207]: Found label after column 1. (GPR_VAR)
                      00021     GPR_VAR         UDATA
0000                  00022 DEL         RES 1
0001                  00023 NIBBLE_H            RES 1
0002                  00024 NIBBLE_L            RES 1
0003                  00025 BANDERAS    RES 1
0004                  00026 STATUS_TEMP RES 1
Warning[207]: Found label after column 1. (W_TEMP)
0005                  00027  W_TEMP     RES 1
0006                  00028 NIBBLE_L2   RES 1
0007                  00029 NIBBLE_H2   RES 1
Warning[207]: Found label after column 1. (NIBBLE_L3)
0008                  00030  NIBBLE_L3   RES 1
0009                  00031 NIBBLE_H3   RES 1
000A                  00032 VAR_GENERAL1    RES 1
000B                  00033 VAR_GENERAL2    RES 1
000C                  00034 VAR_GENERAL3    RES 1
000D                  00035 CANAL           RES 1
000E                  00036 X_CEN           RES 1
000F                  00037 X_DEC           RES 1
0010                  00038 X_UNI           RES 1
0011                  00039 Y_CEN           RES 1
MPASM 5.77               PRUEBAPROYECTO2.ASM   10-27-2020  2:00:09         PAGE  2


LOC  OBJECT CODE     LINE SOURCE TEXT
  VALUE

0012                  00040 Y_DEC           RES 1
0013                  00041 Y_UNI           RES 1
0014                  00042 CONTADOR        RES 1
0015                  00043 ENTRADA         RES 1
0016                  00044 CONTADOR2       RES 1
0017                  00045 PIXEL_CEN       RES 1
0018                  00046 PIXEL_DEC       RES 1
0019                  00047 PIXEL_UNI               RES 1
001A                  00048 PXH             RES 1
001B                  00049 PXM             RES 1
001C                  00050 PXL             RES 1
001D                  00051 PYH             RES 1
001E                  00052 PYM             RES 1
001F                  00053 PYL             RES 1
                      00054                                 
                      00055         
                      00056                 
                      00057 RES_VECT  CODE    0x0000            ; processor reset vector
0000   2???           00058     GOTO    START                   ; go to beginning of program
                      00059     
                      00060        
                      00061 ISR_VECT    CODE 0X0004
                      00062     
0004                  00063 PUSH:
0004   00??           00064     MOVWF           W_TEMP
0005   0E03           00065     SWAPF          STATUS, W
0006   00??           00066     MOVWF          STATUS_TEMP 
                      00067 
                      00068    
                      00069 
0007                  00070 ISR:
0007   1283 1303      00071     BANKSEL PORTA
0009   1E8C           00072      BTFSS   PIR1, RCIF
000A   2???           00073     GOTO TRANSMISION
000B   081A           00074     MOVF    RCREG, W
000C   00??           00075     MOVWF   ENTRADA
000D   0A??           00076     INCF        CONTADOR2, F
                      00077     
000E   3001           00078     MOVLW .1
000F   02??           00079     SUBWF   CONTADOR2, W
0010   1D03           00080     BTFSS   STATUS, Z
0011   2???           00081     GOTO    HIGHX
                      00082     
0012   3002           00083     MOVLW .2
0013   02??           00084     SUBWF   CONTADOR2, W
0014   1D03           00085     BTFSS   STATUS, Z
0015   2???           00086     GOTO    MEDIUMX
                      00087     
0016   3003           00088     MOVLW .3
0017   02??           00089     SUBWF   CONTADOR2, W
0018   1D03           00090     BTFSS   STATUS, Z
0019   2???           00091     GOTO    LOWX
                      00092     
MPASM 5.77               PRUEBAPROYECTO2.ASM   10-27-2020  2:00:09         PAGE  3


LOC  OBJECT CODE     LINE SOURCE TEXT
  VALUE

001A   3004           00093     MOVLW .4
001B   02??           00094     SUBWF   CONTADOR2, W
001C   1D03           00095     BTFSS   STATUS, Z
001D   2???           00096     GOTO    TRANSMISION
                      00097     
001E   3005           00098     MOVLW .5
001F   02??           00099     SUBWF   CONTADOR2, W
0020   1D03           00100     BTFSS   STATUS, Z
0021   2???           00101     GOTO    HIGHY
                      00102     
0022   3006           00103     MOVLW .6
0023   02??           00104     SUBWF   CONTADOR2, W
0024   1D03           00105     BTFSS   STATUS, Z
0025   2???           00106     GOTO    MEDIUMY
                      00107     
0026   3007           00108     MOVLW .7
0027   02??           00109     SUBWF   CONTADOR2, W
0028   1D03           00110     BTFSS   STATUS, Z
0029   2???           00111     GOTO    LOWY
                      00112     
002A   3008           00113     MOVLW .8
002B   02??           00114     SUBWF   CONTADOR2, W
002C   1D03           00115     BTFSS   STATUS, Z
002D   2???           00116     GOTO    TRANSMISION
                      00117     
                      00118     
                      00119     
Warning[207]: Found label after column 1. (HIGHX)
002E                  00120     HIGHX:
002E   08??           00121     MOVFW   ENTRADA
002F   00??           00122     MOVWF   PXH
0030   2???           00123     GOTO    TRANSMISION
Warning[207]: Found label after column 1. (MEDIUMX)
0031                  00124     MEDIUMX:
0031   08??           00125     MOVFW   ENTRADA
0032   00??           00126     MOVWF   PXM
0033   2???           00127     GOTO    TRANSMISION
Warning[207]: Found label after column 1. (LOWX)
0034                  00128     LOWX:
0034   08??           00129     MOVFW   ENTRADA
0035   00??           00130     MOVWF   PXL
0036   2???           00131     GOTO    TRANSMISION
                      00132      
Warning[207]: Found label after column 1. (HIGHY)
0037                  00133     HIGHY:
0037   08??           00134     MOVFW   ENTRADA
0038   00??           00135     MOVWF   PYH
0039   2???           00136     GOTO    TRANSMISION
Warning[207]: Found label after column 1. (MEDIUMY)
003A                  00137     MEDIUMY:
003A   08??           00138     MOVFW   ENTRADA
003B   00??           00139     MOVWF   PYM
003C   2???           00140     GOTO    TRANSMISION
MPASM 5.77               PRUEBAPROYECTO2.ASM   10-27-2020  2:00:09         PAGE  4


LOC  OBJECT CODE     LINE SOURCE TEXT
  VALUE

Warning[207]: Found label after column 1. (LOWY)
003D                  00141     LOWY:
003D   08??           00142     MOVFW   ENTRADA
003E   00??           00143     MOVWF   PYL
003F   2???           00144     GOTO    TRANSMISION
                      00145      
                      00146     
Warning[207]: Found label after column 1. (TRANSMISION)
0040                  00147     TRANSMISION:
0040   130C           00148     BCF PIR1, ADIF
0041   1800           00149     BTFSC   CANAL, 0
0042   2???           00150     GOTO         CAMBIO_CANAL
0043   1283 1303      00151     BANKSEL ADRESH           
0045   081E           00152     MOVF ADRESH,W               ;GUARDAR 8 BITS EN RESULTHI
0046   00??           00153     MOVWF VAR_GENERAL1
0047   1283 1303      00154     BANKSEL ADCON0
0049   3045           00155     MOVLW    B'01000101'    ;SE PONE CANAL 1
004A   009F           00156     MOVWF   ADCON0
004B   2???           00157     GOTO POP
                      00158     
004C                  00159 CAMBIO_CANAL:
                      00160     ;SI YA CAMBIO EL CANAL EJECUTA ESTO
004C   1283 1303      00161     BANKSEL ADRESH           
004E   081E           00162     MOVF ADRESH,W               ;GUARDAR 8 BITS EN RESULTHI
004F   00??           00163     MOVWF VAR_GENERAL2
0050   1283 1303      00164     BANKSEL ADCON0
0052   3041           00165     MOVLW    B'01000001'    ;SE PONE CANAL 0
0053   009F           00166     MOVWF   ADCON0
                      00167     
                      00168     
0054                  00169 POP:
0054   30FF           00170     MOVLW B'11111111'
0055   06??           00171     XORWF  CANAL, F     ;CADA VEZ QUE SE ENTRA A LA INTERRUPCION SE CAMBIA EL CANAL
                      00172    
                      00173     
0056   0E??           00174     SWAPF           STATUS_TEMP, W
0057   0083           00175     MOVWF           STATUS
0058   0E??           00176     SWAPF           W_TEMP, F
0059   0E??           00177     SWAPF           W_TEMP, W
005A   178B           00178     BSF     INTCON, GIE
                      00179     
                      00180 
                      00181   
005B   0009           00182     RETFIE
                      00183 
Warning[207]: Found label after column 1. (TABLE)
005C                  00184  TABLE
Message[305]: Using default destination of 1 (file).
005C   058F           00185     ANDWF   B'00001111'; LIMITANDO DE 0 A F
005D   0782           00186     ADDWF   PCL, F
                      00187     ;     PBAFGECD
005E   3477           00188     RETLW   B'01110111' ;0
005F   3442           00189     RETLW   B'01000010' ;1
MPASM 5.77               PRUEBAPROYECTO2.ASM   10-27-2020  2:00:09         PAGE  5


LOC  OBJECT CODE     LINE SOURCE TEXT
  VALUE

0060   346D           00190     RETLW   B'01101101' ;2
0061   346B           00191     RETLW   B'01101011' ;3
0062   345A           00192     RETLW   B'01011010' ;4
0063   343B           00193     RETLW   B'00111011' ;5
0064   343F           00194     RETLW   B'00111111' ;6
0065   3462           00195     RETLW   B'01100010' ;7
0066   347F           00196     RETLW   B'01111111' ;8
0067   347B           00197     RETLW   B'01111011' ;9
0068   347E           00198     RETLW   B'01111110' ;A
0069   341F           00199     RETLW   B'00011111' ;B
006A   3435           00200     RETLW   B'00110101' ;C
006B   344F           00201     RETLW   B'01001111' ;D
006C   343D           00202     RETLW   B'00111101' ;E
006D   343C           00203     RETLW   B'00111100' ;F
006E   0008           00204     RETURN
                      00205 
                      00206 MAIN_PROG CODE                      ; let linker place main program
                      00207  
0000                  00208 START
                      00209  
0000   2???           00210     CALL        CONFIG_IO   
0001   2???           00211     CALL        CONFIG_INTERRUPT
                      00212  
0002                  00213 LOOP:
0002   01??           00214     CLRF    X_CEN
0003   01??           00215     CLRF    X_DEC
0004   01??           00216     CLRF    X_UNI
0005   01??           00217     CLRF    Y_CEN
0006   01??           00218     CLRF    Y_DEC
0007   01??           00219     CLRF    Y_UNI
                      00220     
                      00221     
0008   2???           00222     CALL    DELAY
Warning[207]: Found label after column 1. (LECTURA)
0009                  00223     LECTURA:
0009   1C9F           00224     BTFSS   ADCON0, GO
000A   149F           00225     BSF ADCON0,GO               ;INICIAR LA CONVERSION
Message[305]: Using default destination of 1 (file).
000B   0A??           00226     INCF        CONTADOR
000C   3002           00227     MOVLW .2
Message[305]: Using default destination of 1 (file).
000D   02??           00228     SUBWF   CONTADOR
000E   1D03           00229     BTFSS   STATUS, Z 
000F   2???           00230     GOTO    LECTURA
                      00231     
0010   01??           00232     CLRF    CONTADOR
                      00233     
                      00234    ;antes de mandar el código hay que hacer la conversión
0011                  00235 XCENTENAS:
0011   3064           00236     MOVLW   .100
0012   02??           00237     SUBWF   VAR_GENERAL1, W
0013   1803           00238     BTFSC    STATUS, C
0014   00??           00239     MOVWF    VAR_GENERAL1
MPASM 5.77               PRUEBAPROYECTO2.ASM   10-27-2020  2:00:09         PAGE  6


LOC  OBJECT CODE     LINE SOURCE TEXT
  VALUE

0015   1803           00240     BTFSC   STATUS, C
0016   0A??           00241     INCF        X_CEN, F  
0017   1803           00242     BTFSC       STATUS, C
0018   2???           00243     GOTO XCENTENAS
                      00244    
0019                  00245 XDECENAS:
0019   300A           00246     MOVLW    .10
001A   02??           00247     SUBWF   VAR_GENERAL1, W
001B   1803           00248     BTFSC    STATUS, C
001C   00??           00249     MOVWF    VAR_GENERAL1
001D   1803           00250     BTFSC   STATUS, C
001E   0A??           00251     INCF        X_DEC, F
001F   1803           00252     BTFSC       STATUS, C
0020   2???           00253     GOTO XDECENAS
                      00254     
0021                  00255 XUNIDADES:
0021   3001           00256     MOVLW    .1
0022   02??           00257     SUBWF   VAR_GENERAL1, W
0023   1803           00258     BTFSC    STATUS, C
0024   00??           00259     MOVWF    VAR_GENERAL1
0025   1803           00260     BTFSC   STATUS, C
0026   0A??           00261     INCF        X_UNI, F
0027   1803           00262     BTFSC       STATUS, C
0028   2???           00263     GOTO XUNIDADES    
                      00264 
0029                  00265 YCENTENAS:
0029   3064           00266     MOVLW   .100
002A   02??           00267     SUBWF   VAR_GENERAL2, W
002B   1803           00268     BTFSC    STATUS, C
002C   00??           00269     MOVWF    VAR_GENERAL2
002D   1803           00270     BTFSC   STATUS, C
002E   0A??           00271     INCF        Y_CEN, F  
002F   1803           00272     BTFSC       STATUS, C
0030   2???           00273     GOTO YCENTENAS
                      00274    
0031                  00275 YDECENAS:
0031   300A           00276     MOVLW    .10
0032   02??           00277     SUBWF   VAR_GENERAL2, W
0033   1803           00278     BTFSC    STATUS, C
0034   00??           00279     MOVWF    VAR_GENERAL2
0035   1803           00280     BTFSC   STATUS, C
0036   0A??           00281     INCF        Y_DEC, F  
0037   1803           00282     BTFSC       STATUS, C
0038   2???           00283     GOTO YDECENAS
                      00284     
0039                  00285 YUNIDADES:
0039   3001           00286     MOVLW    .1
003A   02??           00287     SUBWF   VAR_GENERAL2, W
003B   1803           00288     BTFSC    STATUS, C
003C   00??           00289     MOVWF    VAR_GENERAL2
003D   1803           00290     BTFSC   STATUS, C
003E   0A??           00291     INCF        Y_UNI, F  
003F   1803           00292     BTFSC       STATUS, C
MPASM 5.77               PRUEBAPROYECTO2.ASM   10-27-2020  2:00:09         PAGE  7


LOC  OBJECT CODE     LINE SOURCE TEXT
  VALUE

0040   2???           00293     GOTO YUNIDADES    
                      00294        
                      00295   ;despues de hacer la conversion para mandar centenas, decenas y unidades, tengo que sumarles 48 para q
                            ue correspondan a numeros en ascii
                      00296 
0041   2???           00297      CALL       SEPARAR_NIBBLE
0042   2???           00298      CALL       DISPLAY
                      00299   
0043   3030           00300     MOVLW       .48
0044   07??           00301     ADDWF       X_CEN, F
0045   3030           00302     MOVLW       .48
0046   07??           00303     ADDWF       X_DEC, F
0047   3030           00304     MOVLW       .48
0048   07??           00305     ADDWF       X_UNI, F
0049   3030           00306     MOVLW       .48
004A   07??           00307     ADDWF       Y_CEN, F
004B   3030           00308     MOVLW       .48
004C   07??           00309     ADDWF       Y_DEC, F
004D   3030           00310     MOVLW       .48
004E   07??           00311     ADDWF       Y_UNI, F
                      00312   
                      00313    
004F   08??           00314     MOVF            X_CEN, W
0050   0099           00315     MOVWF           TXREG
0051   1E0C           00316     BTFSS           PIR1, TXIF
0052   2???           00317     GOTO            $-1
0053   2???           00318     CALL        DELAY
                      00319     
0054   08??           00320     MOVF            X_DEC, W
0055   0099           00321     MOVWF           TXREG
0056   1E0C           00322     BTFSS           PIR1, TXIF
0057   2???           00323     GOTO            $-1
0058   2???           00324     CALL        DELAY
                      00325     
0059   08??           00326     MOVF            X_UNI, W
005A   0099           00327     MOVWF           TXREG
005B   1E0C           00328     BTFSS           PIR1, TXIF
005C   2???           00329     GOTO            $-1
005D   2???           00330     CALL        DELAY
                      00331     
005E   302C           00332     MOVLW   B'00101100'    ;COMA
005F   0099           00333     MOVWF   TXREG
0060   1E0C           00334     BTFSS   PIR1, TXIF
0061   2???           00335     GOTO $-1
0062   2???           00336     CALL    DELAY
0063   2???           00337     CALL    DELAY
0064   2???           00338     CALL    DELAY
                      00339     
0065   08??           00340     MOVF            Y_CEN, W
0066   0099           00341     MOVWF           TXREG
0067   1E0C           00342     BTFSS           PIR1, TXIF
0068   2???           00343     GOTO            $-1
0069   2???           00344     CALL        DELAY
MPASM 5.77               PRUEBAPROYECTO2.ASM   10-27-2020  2:00:09         PAGE  8


LOC  OBJECT CODE     LINE SOURCE TEXT
  VALUE

                      00345         
006A   08??           00346     MOVF            Y_DEC, W
006B   0099           00347     MOVWF           TXREG
006C   1E0C           00348     BTFSS           PIR1, TXIF
006D   2???           00349     GOTO            $-1
006E   2???           00350     CALL        DELAY
                      00351 
006F   08??           00352     MOVF            Y_UNI, W
0070   0099           00353     MOVWF           TXREG
0071   1E0C           00354     BTFSS           PIR1, TXIF
0072   2???           00355     GOTO            $-1
0073   2???           00356     CALL        DELAY
                      00357     
0074   300A           00358     MOVLW   B'00001010' ;NUEVA LINEA
0075   0099           00359     MOVWF   TXREG
0076   1E0C           00360     BTFSS   PIR1, TXIF
0077   2???           00361     GOTO $-1
0078   2???           00362     CALL    DELAY
                      00363     
                      00364     
                      00365     
                      00366     
                      00367     
0079   2???           00368     GOTO LOOP
007A   2???           00369     GOTO $                          ; loop forever
                      00370     
                      00371     
                      00372         
                      00373 ;***********************************************************SUBRUTINAS* ********************************
                            *********************************
                      00374      
                      00375     
Warning[207]: Found label after column 1. (SEPARAR_NIBBLE)
007B                  00376         SEPARAR_NIBBLE
                      00377         
007B   08??           00378     MOVF    X_CEN, W
007C   00??           00379     MOVWF  NIBBLE_L
                      00380     
007D   08??           00381     MOVF    X_DEC, W
007E   00??           00382     MOVWF  NIBBLE_H
                      00383     
007F   08??           00384     MOVF    X_UNI, W
0080   00??           00385     MOVWF  NIBBLE_L2
                      00386     
                      00387     
0081   08??           00388     MOVF    Y_CEN, W
0082   00??           00389     MOVWF  NIBBLE_H2
                      00390     
0083   08??           00391     MOVF    Y_DEC, W
0084   00??           00392     MOVWF  NIBBLE_L3
                      00393     
0085   08??           00394     MOVF    Y_UNI, W
0086   00??           00395     MOVWF  NIBBLE_H3
MPASM 5.77               PRUEBAPROYECTO2.ASM   10-27-2020  2:00:09         PAGE  9


LOC  OBJECT CODE     LINE SOURCE TEXT
  VALUE

                      00396     
                      00397     
                      00398    
0087   0008           00399     RETURN
                      00400     
                      00401     ;SE UTILIZA PARA VER QUE DISPLAY SE PRENDERA, VARIANDO VALOR DE BANDERAS CONTINUAMENTE 
0088                  00402 TOGGLE_B0
0088   0A??           00403     INCF   BANDERAS, F
0089   3006           00404     MOVLW    .6
008A   02??           00405     SUBWF    BANDERAS, W
008B   1903           00406     BTFSC    STATUS, Z 
008C   01??           00407     CLRF        BANDERAS
008D   0008           00408     RETURN   
                      00409     
Warning[207]: Found label after column 1. (DISPLAY)
008E                  00410       DISPLAY       
008E   0186           00411     CLRF    PORTB
008F   3000           00412     MOVLW   .0
0090   02??           00413     SUBWF   BANDERAS,W
0091   1903           00414     BTFSC   STATUS, Z
0092   2???           00415     GOTO    DISPLAY_0
0093   3001           00416     MOVLW   .1
0094   02??           00417     SUBWF   BANDERAS, W
0095   1903           00418     BTFSC   STATUS, Z 
0096   2???           00419     GOTO DISPLAY_1
0097   3002           00420     MOVLW   .2
0098   02??           00421     SUBWF   BANDERAS,W
0099   1903           00422     BTFSC   STATUS, Z
009A   2???           00423     GOTO    DISPLAY_2
009B   3003           00424     MOVLW   .3
009C   02??           00425     SUBWF   BANDERAS, W
009D   1903           00426     BTFSC   STATUS, Z 
009E   2???           00427     GOTO  DISPLAY_3
009F   3004           00428     MOVLW   .4
00A0   02??           00429     SUBWF   BANDERAS,W
00A1   1903           00430     BTFSC   STATUS, Z
00A2   2???           00431     GOTO    DISPLAY_4
00A3   3005           00432     MOVLW   .5
00A4   02??           00433     SUBWF   BANDERAS, W
00A5   1903           00434     BTFSC   STATUS, Z 
00A6   2???           00435     GOTO  DISPLAY_5
                      00436     
00A7                  00437 DISPLAY_0:
00A7   08??           00438     MOVF  NIBBLE_L, W
00A8   2???           00439     CALL          TABLE
00A9   0088           00440     MOVWF   PORTD
00AA   1406           00441     BSF     PORTB, RB0
00AB   2???           00442     GOTO         FIN_DISPLAY
00AC                  00443 DISPLAY_1:
00AC   08??           00444     MOVF    NIBBLE_H, W 
00AD   2???           00445     CALL    TABLE
00AE   0088           00446     MOVWF   PORTD
00AF   1486           00447     BSF     PORTB, RD1
MPASM 5.77               PRUEBAPROYECTO2.ASM   10-27-2020  2:00:09         PAGE 10


LOC  OBJECT CODE     LINE SOURCE TEXT
  VALUE

00B0   2???           00448     GOTO         FIN_DISPLAY
00B1                  00449 DISPLAY_2:
00B1   08??           00450     MOVF    NIBBLE_L2, W
00B2   2???           00451     CALL        TABLE
00B3   0088           00452     MOVWF   PORTD
00B4   1506           00453     BSF PORTB, RB2
00B5   2???           00454     GOTO    FIN_DISPLAY  
00B6                  00455 DISPLAY_3:
00B6   08??           00456     MOVF    NIBBLE_H2, W
00B7   2???           00457     CALL        TABLE
00B8   0088           00458     MOVWF   PORTD
00B9   1586           00459     BSF PORTB, RB3
00BA   2???           00460     GOTO         FIN_DISPLAY
00BB                  00461 DISPLAY_4:
00BB   08??           00462     MOVF    NIBBLE_L3, W
00BC   2???           00463     CALL        TABLE
00BD   0088           00464     MOVWF   PORTD
00BE   1606           00465     BSF PORTB, RB4
00BF   2???           00466     GOTO    FIN_DISPLAY  
00C0                  00467 DISPLAY_5:
00C0   08??           00468     MOVF    NIBBLE_H3, W
00C1   2???           00469     CALL        TABLE
00C2   0088           00470     MOVWF   PORTD
00C3   1686           00471     BSF PORTB, RB5
00C4   2???           00472     GOTO         FIN_DISPLAY
00C5                  00473 FIN_DISPLAY:
00C5   2???           00474     CALL    TOGGLE_B0
00C6   0008           00475     RETURN
                      00476     
                      00477     
Warning[207]: Found label after column 1. (DELAY)
00C7                  00478     DELAY
00C7   30FF           00479     MOVLW   .255
00C8   00??           00480     MOVWF   DEL
00C9   0B??           00481     DECFSZ  DEL, F
00CA   2???           00482     GOTO    $-1
00CB   0008           00483     RETURN
                      00484 
                      00485     
                      00486 ;***************************************************CONFIGURACIONES ************************************
                            *****************************
Warning[207]: Found label after column 1. (CONFIG_IO)
00CC                  00487     CONFIG_IO
                      00488   
00CC   1683 1303      00489     BANKSEL     TRISA
Message[302]: Register in operand not in bank 0.  Ensure that bank bits are correct.
00CE   0186           00490     CLRF                TRISB
Message[302]: Register in operand not in bank 0.  Ensure that bank bits are correct.
00CF   0188           00491     CLRF                TRISD
00D0   30FF           00492     MOVLW               B'11111111'
Message[302]: Register in operand not in bank 0.  Ensure that bank bits are correct.
00D1   0087           00493     MOVWF               TRISC
                      00494     
MPASM 5.77               PRUEBAPROYECTO2.ASM   10-27-2020  2:00:09         PAGE 11


LOC  OBJECT CODE     LINE SOURCE TEXT
  VALUE

00D2   1283 1303      00495     BANKSEL     PORTA
00D4   0185           00496     CLRF                PORTA
00D5   0187           00497     CLRF                PORTC
00D6   0188           00498     CLRF                PORTD
00D7   0186           00499     CLRF                PORTB
00D8   01??           00500     CLRF                NIBBLE_H
00D9   01??           00501     CLRF                NIBBLE_L
                      00502     
00DA   01??           00503     CLRF                CANAL
00DB   01??           00504     CLRF                VAR_GENERAL1
00DC   01??           00505     CLRF                VAR_GENERAL2
00DD   01??           00506     CLRF                PXH
00DE   01??           00507     CLRF                PXM
00DF   01??           00508     CLRF                PXL
00E0   01??           00509     CLRF                PYH
00E1   01??           00510     CLRF                PYM
00E2   01??           00511     CLRF                PYL
                      00512 
                      00513 
00E3   1683 1303      00514     BANKSEL ADCON1
00E5   3000           00515     MOVLW B'00000000' ; JUSTIFICADO A LA IZQUIERDA
Message[302]: Register in operand not in bank 0.  Ensure that bank bits are correct.
00E6   009F           00516     MOVWF ADCON1           ; VDD COMO REFER ENCIA
00E7   1683 1303      00517     BANKSEL TRISA
Message[302]: Register in operand not in bank 0.  Ensure that bank bits are correct.
00E9   1405           00518     BSF TRISA, 0
Message[302]: Register in operand not in bank 0.  Ensure that bank bits are correct.
00EA   1485           00519     BSF TRISA, 1
00EB   1683 1703      00520     BANKSEL ANSEL
Message[302]: Register in operand not in bank 0.  Ensure that bank bits are correct.
00ED   1408           00521     BSF ANSEL, 0
Message[302]: Register in operand not in bank 0.  Ensure that bank bits are correct.
00EE   1488           00522     BSF ANSEL, 1
00EF   1283 1303      00523     BANKSEL ADCON0
00F1   3041           00524     MOVLW B'01000001'   ;FOSC/8
00F2   009F           00525     MOVWF ADCON0                ;AN0, On
                      00526     
00F3   1683 1303      00527     BANKSEL TRISA
00F5   3019           00528     MOVLW   .25 ;PARA BAUDRATE DE 9615
Message[302]: Register in operand not in bank 0.  Ensure that bank bits are correct.
00F6   0099           00529     MOVWF    SPBRG
Message[302]: Register in operand not in bank 0.  Ensure that bank bits are correct.
00F7   019A           00530     CLRF    SPBRGH  
                      00531 
Message[302]: Register in operand not in bank 0.  Ensure that bank bits are correct.
00F8   1518           00532     BSF TXSTA, BRGH ; HIGH SPEED DE BAUDIOS
Message[302]: Register in operand not in bank 0.  Ensure that bank bits are correct.
00F9   1218           00533     BCF TXSTA, SYNC;MODO ASINCRONO
Message[302]: Register in operand not in bank 0.  Ensure that bank bits are correct.
00FA   1698           00534     BSF TXSTA, TXEN; SE HABILITA LA TRANSMISION
Message[302]: Register in operand not in bank 0.  Ensure that bank bits are correct.
00FB   1318           00535     BCF TXSTA, TX9 ; SOLO 8 BITS
00FC   1683 1703      00536     BANKSEL BAUDCTL
MPASM 5.77               PRUEBAPROYECTO2.ASM   10-27-2020  2:00:09         PAGE 12


LOC  OBJECT CODE     LINE SOURCE TEXT
  VALUE

Message[302]: Register in operand not in bank 0.  Ensure that bank bits are correct.
00FE   1187           00537     BCF BAUDCTL, BRG16 ;SE USAN 8 BITS
                      00538     
00FF   1283 1303      00539     BANKSEL PORTA
0101   1798           00540     BSF RCSTA, SPEN ;PARA QUE LA SALIDA SEA EN TX   
0102   1618           00541     BSF RCSTA, CREN;PARA QUE LA ENTRADA SEA EN RX
0103   0008           00542     RETURN
                      00543     
                      00544     
Warning[207]: Found label after column 1. (CONFIG_INTERRUPT)
0104                  00545      CONFIG_INTERRUPT
                      00546     
0104   1683 1303      00547     BANKSEL     TRISA
Message[302]: Register in operand not in bank 0.  Ensure that bank bits are correct.
0106   170C           00548     BSF         PIE1, ADIE
Message[302]: Register in operand not in bank 0.  Ensure that bank bits are correct.
0107   168C           00549     BSF         PIE1, RCIE
0108   1283 1303      00550     BANKSEL     PORTA
010A   178B           00551     BSF         INTCON, GIE
010B   170B           00552     BSF         INTCON, PEIE
010C   130C           00553     BCF         PIR1, ADIF
                      00554 
010D   0008           00555     RETURN
                      00556 
20D4 3FFF             00557     END
MPASM 5.77               PRUEBAPROYECTO2.ASM   10-27-2020  2:00:09         PAGE 13


SYMBOL TABLE
  LABEL                             VALUE 

ABDEN                             00000000
ABDOVF                            00000007
ACKDT                             00000005
ACKEN                             00000004
ACKSTAT                           00000006
ADCON0                            0000001F
ADCON1                            0000009F
ADCS0                             00000006
ADCS1                             00000007
ADDEN                             00000003
ADFM                              00000007
ADIE                              00000006
ADIF                              00000006
ADON                              00000000
ADRESH                            0000001E
ADRESL                            0000009E
ANS0                              00000000
ANS1                              00000001
ANS10                             00000002
ANS11                             00000003
ANS12                             00000004
ANS13                             00000005
ANS2                              00000002
ANS3                              00000003
ANS4                              00000004
ANS5                              00000005
ANS6                              00000006
ANS7                              00000007
ANS8                              00000000
ANS9                              00000001
ANSEL                             00000188
ANSELH                            00000189
BANDERAS                          00000003
BAUDCTL                           00000187
BCLIE                             00000003
BCLIF                             00000003
BF                                00000000
BRG0                              00000000
BRG1                              00000001
BRG10                             00000002
BRG11                             00000003
BRG12                             00000004
BRG13                             00000005
BRG14                             00000006
BRG15                             00000007
BRG16                             00000003
BRG2                              00000002
BRG3                              00000003
BRG4                              00000004
BRG5                              00000005
BRG6                              00000006
BRG7                              00000007
BRG8                              00000000
MPASM 5.77               PRUEBAPROYECTO2.ASM   10-27-2020  2:00:09         PAGE 14


SYMBOL TABLE
  LABEL                             VALUE 

BRG9                              00000001
BRGH                              00000002
C                                 00000000
C1CH0                             00000000
C1CH1                             00000001
C1IE                              00000005
C1IF                              00000005
C1OE                              00000005
C1ON                              00000007
C1OUT                             00000006
C1POL                             00000004
C1R                               00000002
C1RSEL                            00000005
C1SEN                             00000005
C2CH0                             00000000
C2CH1                             00000001
C2IE                              00000006
C2IF                              00000006
C2OE                              00000005
C2ON                              00000007
C2OUT                             00000006
C2POL                             00000004
C2R                               00000002
C2REN                             00000004
C2RSEL                            00000004
C2SYNC                            00000000
CAMBIO_CANAL                      0000004C
CANAL                             0000000D
CCP1CON                           00000017
CCP1IE                            00000002
CCP1IF                            00000002
CCP1M0                            00000000
CCP1M1                            00000001
CCP1M2                            00000002
CCP1M3                            00000003
CCP1X                             00000005
CCP1Y                             00000004
CCP2CON                           0000001D
CCP2IE                            00000000
CCP2IF                            00000000
CCP2M0                            00000000
CCP2M1                            00000001
CCP2M2                            00000002
CCP2M3                            00000003
CCP2X                             00000005
CCP2Y                             00000004
CCPR1                             00000015
CCPR1H                            00000016
CCPR1L                            00000015
CCPR2                             0000001B
CCPR2H                            0000001C
CCPR2L                            0000001B
CHS0                              00000002
MPASM 5.77               PRUEBAPROYECTO2.ASM   10-27-2020  2:00:09         PAGE 15


SYMBOL TABLE
  LABEL                             VALUE 

CHS1                              00000003
CHS2                              00000004
CHS3                              00000005
CKE                               00000006
CKP                               00000004
CM1CON0                           00000107
CM2CON0                           00000108
CM2CON1                           00000109
CONFIG_INTERRUPT                  00000104
CONFIG_IO                         000000CC
CONTADOR                          00000014
CONTADOR2                         00000016
CREN                              00000004
CSRC                              00000007
D                                 00000005
DATA_ADDRESS                      00000005
DC                                00000001
DC1B0                             00000004
DC1B1                             00000005
DC2B0                             00000004
DC2B1                             00000005
DEL                               00000000
DELAY                             000000C7
DISPLAY                           0000008E
DISPLAY_0                         000000A7
DISPLAY_1                         000000AC
DISPLAY_2                         000000B1
DISPLAY_3                         000000B6
DISPLAY_4                         000000BB
DISPLAY_5                         000000C0
D_A                               00000005
D_NOT_A                           00000005
ECCPAS                            0000009C
ECCPAS0                           00000004
ECCPAS1                           00000005
ECCPAS2                           00000006
ECCPASE                           00000007
EEADR                             0000010D
EEADRH                            0000010F
EECON1                            0000018C
EECON2                            0000018D
EEDAT                             0000010C
EEDATA                            0000010C
EEDATH                            0000010E
EEIE                              00000004
EEIF                              00000004
EEPGD                             00000007
ENTRADA                           00000015
F                                 00000001
FERR                              00000002
FIN_DISPLAY                       000000C5
FSR                               00000004
FVREN                             00000000
MPASM 5.77               PRUEBAPROYECTO2.ASM   10-27-2020  2:00:09         PAGE 16


SYMBOL TABLE
  LABEL                             VALUE 

GCEN                              00000007
GIE                               00000007
GO                                00000001
GO_DONE                           00000001
GO_NOT_DONE                       00000001
HIGHX                             0000002E
HIGHY                             00000037
HTS                               00000002
I2C_DATA                          00000005
I2C_READ                          00000002
I2C_START                         00000003
I2C_STOP                          00000004
INDF                              00000000
INTCON                            0000000B
INTE                              00000004
INTEDG                            00000006
INTF                              00000001
IOCB                              00000096
IOCB0                             00000000
IOCB1                             00000001
IOCB2                             00000002
IOCB3                             00000003
IOCB4                             00000004
IOCB5                             00000005
IOCB6                             00000006
IOCB7                             00000007
IRCF0                             00000004
IRCF1                             00000005
IRCF2                             00000006
IRP                               00000007
ISR                               00000007
LECTURA                           00000009
LOOP                              00000002
LOWX                              00000034
LOWY                              0000003D
LTS                               00000001
MC1OUT                            00000007
MC2OUT                            00000006
MEDIUMX                           00000031
MEDIUMY                           0000003A
MSK                               00000093
MSK0                              00000000
MSK1                              00000001
MSK2                              00000002
MSK3                              00000003
MSK4                              00000004
MSK5                              00000005
MSK6                              00000006
MSK7                              00000007
NIBBLE_H                          00000001
NIBBLE_H2                         00000007
NIBBLE_H3                         00000009
NIBBLE_L                          00000002
MPASM 5.77               PRUEBAPROYECTO2.ASM   10-27-2020  2:00:09         PAGE 17


SYMBOL TABLE
  LABEL                             VALUE 

NIBBLE_L2                         00000006
NIBBLE_L3                         00000008
NOT_A                             00000005
NOT_ADDRESS                       00000005
NOT_BO                            00000000
NOT_BOR                           00000000
NOT_DONE                          00000001
NOT_PD                            00000003
NOT_POR                           00000001
NOT_RBPU                          00000007
NOT_RC8                           00000006
NOT_T1SYNC                        00000002
NOT_TO                            00000004
NOT_TX8                           00000006
NOT_W                             00000002
NOT_WRITE                         00000002
OERR                              00000001
OPTION_REG                        00000081
OSCCON                            0000008F
OSCTUNE                           00000090
OSFIE                             00000007
OSFIF                             00000007
OSTS                              00000003
P                                 00000004
P1M0                              00000006
P1M1                              00000007
PCL                               00000002
PCLATH                            0000000A
PCON                              0000008E
PDC0                              00000000
PDC1                              00000001
PDC2                              00000002
PDC3                              00000003
PDC4                              00000004
PDC5                              00000005
PDC6                              00000006
PEIE                              00000006
PEN                               00000002
PIE1                              0000008C
PIE2                              0000008D
PIR1                              0000000C
PIR2                              0000000D
PIXEL_CEN                         00000017
PIXEL_DEC                         00000018
PIXEL_UNI                         00000019
POP                               00000054
PORTA                             00000005
PORTB                             00000006
PORTC                             00000007
PORTD                             00000008
PORTE                             00000009
PR2                               00000092
PRSEN                             00000007
MPASM 5.77               PRUEBAPROYECTO2.ASM   10-27-2020  2:00:09         PAGE 18


SYMBOL TABLE
  LABEL                             VALUE 

PS0                               00000000
PS1                               00000001
PS2                               00000002
PSA                               00000003
PSSAC0                            00000002
PSSAC1                            00000003
PSSBD0                            00000000
PSSBD1                            00000001
PSTRCON                           0000009D
PULSR                             00000002
PULSS                             00000003
PUSH                              00000004
PWM1CON                           0000009B
PXH                               0000001A
PXL                               0000001C
PXM                               0000001B
PYH                               0000001D
PYL                               0000001F
PYM                               0000001E
R                                 00000002
RA0                               00000000
RA1                               00000001
RA2                               00000002
RA3                               00000003
RA4                               00000004
RA5                               00000005
RA6                               00000006
RA7                               00000007
RB0                               00000000
RB1                               00000001
RB2                               00000002
RB3                               00000003
RB4                               00000004
RB5                               00000005
RB6                               00000006
RB7                               00000007
RBIE                              00000003
RBIF                              00000000
RC0                               00000000
RC1                               00000001
RC2                               00000002
RC3                               00000003
RC4                               00000004
RC5                               00000005
RC6                               00000006
RC7                               00000007
RC8_9                             00000006
RC9                               00000006
RCD8                              00000000
RCEN                              00000003
RCIDL                             00000006
RCIE                              00000005
RCIF                              00000005
MPASM 5.77               PRUEBAPROYECTO2.ASM   10-27-2020  2:00:09         PAGE 19


SYMBOL TABLE
  LABEL                             VALUE 

RCREG                             0000001A
RCSTA                             00000018
RD                                00000000
RD0                               00000000
RD1                               00000001
RD2                               00000002
RD3                               00000003
RD4                               00000004
RD5                               00000005
RD6                               00000006
RD7                               00000007
RE0                               00000000
RE1                               00000001
RE2                               00000002
RE3                               00000003
READ_WRITE                        00000002
RP0                               00000005
RP1                               00000006
RSEN                              00000001
RX9                               00000006
RX9D                              00000000
R_NOT_W                           00000002
R_W                               00000002
S                                 00000003
SBOREN                            00000004
SCKP                              00000004
SCS                               00000000
SEN                               00000000
SENDB                             00000003
SEPARAR_NIBBLE                    0000007B
SMP                               00000007
SPBRG                             00000099
SPBRGH                            0000009A
SPEN                              00000007
SR0                               00000006
SR1                               00000007
SRCON                             00000185
SREN                              00000005
SSPADD                            00000093
SSPBUF                            00000013
SSPCON                            00000014
SSPCON2                           00000091
SSPEN                             00000005
SSPIE                             00000003
SSPIF                             00000003
SSPM0                             00000000
SSPM1                             00000001
SSPM2                             00000002
SSPM3                             00000003
SSPMSK                            00000093
SSPOV                             00000006
SSPSTAT                           00000094
START                             00000000
MPASM 5.77               PRUEBAPROYECTO2.ASM   10-27-2020  2:00:09         PAGE 20


SYMBOL TABLE
  LABEL                             VALUE 

STATUS                            00000003
STATUS_TEMP                       00000004
STRA                              00000000
STRB                              00000001
STRC                              00000002
STRD                              00000003
STRSYNC                           00000004
SWDTEN                            00000000
SYNC                              00000004
T0CS                              00000005
T0IE                              00000005
T0IF                              00000002
T0SE                              00000004
T1CKPS0                           00000004
T1CKPS1                           00000005
T1CON                             00000010
T1GINV                            00000007
T1GIV                             00000007
T1GSS                             00000001
T1INSYNC                          00000002
T1OSCEN                           00000003
T1SYNC                            00000002
T2CKPS0                           00000000
T2CKPS1                           00000001
T2CON                             00000012
TABLE                             0000005C
TMR0                              00000001
TMR0IE                            00000005
TMR0IF                            00000002
TMR1                              0000000E
TMR1CS                            00000001
TMR1GE                            00000006
TMR1H                             0000000F
TMR1IE                            00000000
TMR1IF                            00000000
TMR1L                             0000000E
TMR1ON                            00000000
TMR2                              00000011
TMR2IE                            00000001
TMR2IF                            00000001
TMR2ON                            00000002
TOGGLE_B0                         00000088
TOUTPS0                           00000003
TOUTPS1                           00000004
TOUTPS2                           00000005
TOUTPS3                           00000006
TRANSMISION                       00000040
TRISA                             00000085
TRISA0                            00000000
TRISA1                            00000001
TRISA2                            00000002
TRISA3                            00000003
TRISA4                            00000004
MPASM 5.77               PRUEBAPROYECTO2.ASM   10-27-2020  2:00:09         PAGE 21


SYMBOL TABLE
  LABEL                             VALUE 

TRISA5                            00000005
TRISA6                            00000006
TRISA7                            00000007
TRISB                             00000086
TRISB0                            00000000
TRISB1                            00000001
TRISB2                            00000002
TRISB3                            00000003
TRISB4                            00000004
TRISB5                            00000005
TRISB6                            00000006
TRISB7                            00000007
TRISC                             00000087
TRISC0                            00000000
TRISC1                            00000001
TRISC2                            00000002
TRISC3                            00000003
TRISC4                            00000004
TRISC5                            00000005
TRISC6                            00000006
TRISC7                            00000007
TRISD                             00000088
TRISD0                            00000000
TRISD1                            00000001
TRISD2                            00000002
TRISD3                            00000003
TRISD4                            00000004
TRISD5                            00000005
TRISD6                            00000006
TRISD7                            00000007
TRISE                             00000089
TRISE0                            00000000
TRISE1                            00000001
TRISE2                            00000002
TRISE3                            00000003
TRMT                              00000001
TUN0                              00000000
TUN1                              00000001
TUN2                              00000002
TUN3                              00000003
TUN4                              00000004
TX8_9                             00000006
TX9                               00000006
TX9D                              00000000
TXD8                              00000000
TXEN                              00000005
TXIE                              00000004
TXIF                              00000004
TXREG                             00000019
TXSTA                             00000098
UA                                00000001
ULPWUE                            00000005
ULPWUIE                           00000002
MPASM 5.77               PRUEBAPROYECTO2.ASM   10-27-2020  2:00:09         PAGE 22


SYMBOL TABLE
  LABEL                             VALUE 

ULPWUIF                           00000002
VAR_GENERAL1                      0000000A
VAR_GENERAL2                      0000000B
VAR_GENERAL3                      0000000C
VCFG0                             00000004
VCFG1                             00000005
VR0                               00000000
VR1                               00000001
VR2                               00000002
VR3                               00000003
VRCON                             00000097
VREN                              00000007
VROE                              00000006
VRR                               00000005
VRSS                              00000004
W                                 00000000
WCOL                              00000007
WDTCON                            00000105
WDTPS0                            00000001
WDTPS1                            00000002
WDTPS2                            00000003
WDTPS3                            00000004
WPUB                              00000095
WPUB0                             00000000
WPUB1                             00000001
WPUB2                             00000002
WPUB3                             00000003
WPUB4                             00000004
WPUB5                             00000005
WPUB6                             00000006
WPUB7                             00000007
WR                                00000001
WREN                              00000002
WRERR                             00000003
WUE                               00000001
W_TEMP                            00000005
XCENTENAS                         00000011
XDECENAS                          00000019
XUNIDADES                         00000021
X_CEN                             0000000E
X_DEC                             0000000F
X_UNI                             00000010
YCENTENAS                         00000029
YDECENAS                          00000031
YUNIDADES                         00000039
Y_CEN                             00000011
Y_DEC                             00000012
Y_UNI                             00000013
Z                                 00000002
_BOR21V                           00003EFF
_BOR40V                           00003FFF
_BOR4V_BOR21V                     00003EFF
_BOR4V_BOR40V                     00003FFF
MPASM 5.77               PRUEBAPROYECTO2.ASM   10-27-2020  2:00:09         PAGE 23


SYMBOL TABLE
  LABEL                             VALUE 

_BOREN_NSLEEP                     00003EFF
_BOREN_OFF                        00003CFF
_BOREN_ON                         00003FFF
_BOREN_SBODEN                     00003DFF
_BOR_NSLEEP                       00003EFF
_BOR_OFF                          00003CFF
_BOR_ON                           00003FFF
_BOR_SBODEN                       00003DFF
_CONFIG1                          00002007
_CONFIG2                          00002008
_CPD_OFF                          00003FFF
_CPD_ON                           00003F7F
_CP_OFF                           00003FFF
_CP_ON                            00003FBF
_DEBUG_OFF                        00003FFF
_DEBUG_ON                         00001FFF
_DEVID1                           00002006
_EC_OSC                           00003FFB
_EXTRC                            00003FFF
_EXTRCIO                          00003FFE
_EXTRC_OSC_CLKOUT                 00003FFF
_EXTRC_OSC_NOCLKOUT               00003FFE
_FCMEN_OFF                        000037FF
_FCMEN_ON                         00003FFF
_FOSC_EC                          00003FFB
_FOSC_EXTRC_CLKOUT                00003FFF
_FOSC_EXTRC_NOCLKOUT              00003FFE
_FOSC_HS                          00003FFA
_FOSC_INTRC_CLKOUT                00003FFD
_FOSC_INTRC_NOCLKOUT              00003FFC
_FOSC_LP                          00003FF8
_FOSC_XT                          00003FF9
_HS_OSC                           00003FFA
_IDLOC0                           00002000
_IDLOC1                           00002001
_IDLOC2                           00002002
_IDLOC3                           00002003
_IESO_OFF                         00003BFF
_IESO_ON                          00003FFF
_INTOSC                           00003FFD
_INTOSCIO                         00003FFC
_INTRC_OSC_CLKOUT                 00003FFD
_INTRC_OSC_NOCLKOUT               00003FFC
_LP_OSC                           00003FF8
_LVP_OFF                          00002FFF
_LVP_ON                           00003FFF
_MAIN_PROG_0052                   00000052
_MAIN_PROG_0057                   00000057
_MAIN_PROG_005C                   0000005C
_MAIN_PROG_0061                   00000061
_MAIN_PROG_0068                   00000068
_MAIN_PROG_006D                   0000006D
_MAIN_PROG_0072                   00000072
MPASM 5.77               PRUEBAPROYECTO2.ASM   10-27-2020  2:00:09         PAGE 24


SYMBOL TABLE
  LABEL                             VALUE 

_MAIN_PROG_0077                   00000077
_MAIN_PROG_007A                   0000007A
_MAIN_PROG_00CA                   000000CA
_MCLRE_OFF                        00003FDF
_MCLRE_ON                         00003FFF
_PWRTE_OFF                        00003FFF
_PWRTE_ON                         00003FEF
_WDTE_OFF                         00003FF7
_WDTE_ON                          00003FFF
_WDT_OFF                          00003FF7
_WDT_ON                           00003FFF
_WRT_1FOURTH                      00003BFF
_WRT_256                          00003DFF
_WRT_HALF                         000039FF
_WRT_OFF                          00003FFF
_XT_OSC                           00003FF9
__16F887                          00000001

Errors   :     0
Warnings :    17 reported,     0 suppressed
Messages :    20 reported,     0 suppressed

