MPLINK 5.08, LINKER
Linker Map File - Created Tue Oct 27 02:25:58 2020

                                 Section Info
                  Section       Type    Address   Location Size(Bytes)
                ---------  ---------  ---------  ---------  ---------
                 RES_VECT       code   0x000000    program   0x000002
                   .cinit    romdata   0x000001    program   0x000004
                    INTER       code   0x000004    program   0x00011a
                MAIN_PROG       code   0x000091    program   0x0000fa
.config_2007_BUILD/DEFAULT/PRODUCTION/PRB.O       code   0x002007    program   0x000002
.config_2008_BUILD/DEFAULT/PRODUCTION/PRB.O       code   0x002008    program   0x000002
                    VARIA      udata   0x000020       data   0x00001c



                              Program Memory Usage 
                               Start         End      
                           ---------   ---------      
                            0x000000    0x000002      
                            0x000004    0x00010d      
                            0x002007    0x002008      
            271 out of 8455 program addresses used, program memory utilization is 3%



                              Symbols - Sorted by Name
                     Name    Address   Location    Storage File                     
                ---------  ---------  ---------  --------- ---------                
                 CENTENAS   0x0000f9    program     static C:\Users\noelp\Documents\GitHub\Proyecto 2\Assembly\Prueba1millon.X\PRB.asm
                    CINCO   0x0000ea    program     static C:\Users\noelp\Documents\GitHub\Proyecto 2\Assembly\Prueba1millon.X\PRB.asm
     CONVERTIR_BIN_TO_BCD   0x0000f6    program     static C:\Users\noelp\Documents\GitHub\Proyecto 2\Assembly\Prueba1millon.X\PRB.asm
                   CUARTO   0x000082    program     static C:\Users\noelp\Documents\GitHub\Proyecto 2\Assembly\Prueba1millon.X\PRB.asm
                   CUATRO   0x0000e8    program     static C:\Users\noelp\Documents\GitHub\Proyecto 2\Assembly\Prueba1millon.X\PRB.asm
                  DECENAS   0x000100    program     static C:\Users\noelp\Documents\GitHub\Proyecto 2\Assembly\Prueba1millon.X\PRB.asm
                      DOS   0x0000e4    program     static C:\Users\noelp\Documents\GitHub\Proyecto 2\Assembly\Prueba1millon.X\PRB.asm
                   ENVIAR   0x0000f2    program     static C:\Users\noelp\Documents\GitHub\Proyecto 2\Assembly\Prueba1millon.X\PRB.asm
             ENVIAR_DATOS   0x0000d5    program     static C:\Users\noelp\Documents\GitHub\Proyecto 2\Assembly\Prueba1millon.X\PRB.asm
          ENVIAR_SIN_SUMA   0x0000f3    program     static C:\Users\noelp\Documents\GitHub\Proyecto 2\Assembly\Prueba1millon.X\PRB.asm
                    FINAL   0x00001c    program     static C:\Users\noelp\Documents\GitHub\Proyecto 2\Assembly\Prueba1millon.X\PRB.asm
      GUARDAR_COORDENADAS   0x00003d    program     static C:\Users\noelp\Documents\GitHub\Proyecto 2\Assembly\Prueba1millon.X\PRB.asm
                  INT_ADC   0x000013    program     static C:\Users\noelp\Documents\GitHub\Proyecto 2\Assembly\Prueba1millon.X\PRB.asm
                   INT_RC   0x000023    program     static C:\Users\noelp\Documents\GitHub\Proyecto 2\Assembly\Prueba1millon.X\PRB.asm
                 INT_TMR0   0x00000d    program     static C:\Users\noelp\Documents\GitHub\Proyecto 2\Assembly\Prueba1millon.X\PRB.asm
                      ISR   0x000007    program     static C:\Users\noelp\Documents\GitHub\Proyecto 2\Assembly\Prueba1millon.X\PRB.asm
               LECTURA_C1   0x00001a    program     static C:\Users\noelp\Documents\GitHub\Proyecto 2\Assembly\Prueba1millon.X\PRB.asm
                     LOAD   0x000051    program     static C:\Users\noelp\Documents\GitHub\Proyecto 2\Assembly\Prueba1millon.X\PRB.asm
                     LOOP   0x0000c1    program     static C:\Users\noelp\Documents\GitHub\Proyecto 2\Assembly\Prueba1millon.X\PRB.asm
            MOSTRAR_DATOS   0x000069    program     static C:\Users\noelp\Documents\GitHub\Proyecto 2\Assembly\Prueba1millon.X\PRB.asm
                     OCHO   0x0000f0    program     static C:\Users\noelp\Documents\GitHub\Proyecto 2\Assembly\Prueba1millon.X\PRB.asm
                  PRIMERO   0x000073    program     static C:\Users\noelp\Documents\GitHub\Proyecto 2\Assembly\Prueba1millon.X\PRB.asm
                   QUINTO   0x000087    program     static C:\Users\noelp\Documents\GitHub\Proyecto 2\Assembly\Prueba1millon.X\PRB.asm
                     SAVE   0x000004    program     static C:\Users\noelp\Documents\GitHub\Proyecto 2\Assembly\Prueba1millon.X\PRB.asm
                  SEGUNDO   0x000078    program     static C:\Users\noelp\Documents\GitHub\Proyecto 2\Assembly\Prueba1millon.X\PRB.asm
                     SEIS   0x0000ec    program     static C:\Users\noelp\Documents\GitHub\Proyecto 2\Assembly\Prueba1millon.X\PRB.asm
                    SEXTO   0x00008c    program     static C:\Users\noelp\Documents\GitHub\Proyecto 2\Assembly\Prueba1millon.X\PRB.asm
                    SIETE   0x0000ee    program     static C:\Users\noelp\Documents\GitHub\Proyecto 2\Assembly\Prueba1millon.X\PRB.asm
                    START   0x000091    program     static C:\Users\noelp\Documents\GitHub\Proyecto 2\Assembly\Prueba1millon.X\PRB.asm
                    TABLA   0x000056    program     static C:\Users\noelp\Documents\GitHub\Proyecto 2\Assembly\Prueba1millon.X\PRB.asm
                  TERCERO   0x00007d    program     static C:\Users\noelp\Documents\GitHub\Proyecto 2\Assembly\Prueba1millon.X\PRB.asm
                     TRES   0x0000e6    program     static C:\Users\noelp\Documents\GitHub\Proyecto 2\Assembly\Prueba1millon.X\PRB.asm
                 UNIDADES   0x000107    program     static C:\Users\noelp\Documents\GitHub\Proyecto 2\Assembly\Prueba1millon.X\PRB.asm
                      UNO   0x0000e2    program     static C:\Users\noelp\Documents\GitHub\Proyecto 2\Assembly\Prueba1millon.X\PRB.asm
                   VALOR1   0x000043    program     static C:\Users\noelp\Documents\GitHub\Proyecto 2\Assembly\Prueba1millon.X\PRB.asm
                   VALOR2   0x000048    program     static C:\Users\noelp\Documents\GitHub\Proyecto 2\Assembly\Prueba1millon.X\PRB.asm
                   VALOR3   0x00004d    program     static C:\Users\noelp\Documents\GitHub\Proyecto 2\Assembly\Prueba1millon.X\PRB.asm
                    VER_Y   0x000031    program     static C:\Users\noelp\Documents\GitHub\Proyecto 2\Assembly\Prueba1millon.X\PRB.asm
                   ADC_C0   0x000028       data     static C:\Users\noelp\Documents\GitHub\Proyecto 2\Assembly\Prueba1millon.X\PRB.asm
                   ADC_C1   0x000029       data     static C:\Users\noelp\Documents\GitHub\Proyecto 2\Assembly\Prueba1millon.X\PRB.asm
                 CONTADOR   0x000020       data     static C:\Users\noelp\Documents\GitHub\Proyecto 2\Assembly\Prueba1millon.X\PRB.asm
        CONTADOR_RECEIVER   0x000038       data     static C:\Users\noelp\Documents\GitHub\Proyecto 2\Assembly\Prueba1millon.X\PRB.asm
                    DATO1   0x000035       data     static C:\Users\noelp\Documents\GitHub\Proyecto 2\Assembly\Prueba1millon.X\PRB.asm
                    DATO2   0x000036       data     static C:\Users\noelp\Documents\GitHub\Proyecto 2\Assembly\Prueba1millon.X\PRB.asm
                    DATO3   0x000037       data     static C:\Users\noelp\Documents\GitHub\Proyecto 2\Assembly\Prueba1millon.X\PRB.asm
                  DATOAUX   0x000039       data     static C:\Users\noelp\Documents\GitHub\Proyecto 2\Assembly\Prueba1millon.X\PRB.asm
                    FLAGS   0x000030       data     static C:\Users\noelp\Documents\GitHub\Proyecto 2\Assembly\Prueba1millon.X\PRB.asm
                      MUX   0x000021       data     static C:\Users\noelp\Documents\GitHub\Proyecto 2\Assembly\Prueba1millon.X\PRB.asm
             PIXEL_X_HIGH   0x00002c       data     static C:\Users\noelp\Documents\GitHub\Proyecto 2\Assembly\Prueba1millon.X\PRB.asm
              PIXEL_X_LOW   0x00002a       data     static C:\Users\noelp\Documents\GitHub\Proyecto 2\Assembly\Prueba1millon.X\PRB.asm
              PIXEL_X_MID   0x00002b       data     static C:\Users\noelp\Documents\GitHub\Proyecto 2\Assembly\Prueba1millon.X\PRB.asm
             PIXEL_Y_HIGH   0x00002f       data     static C:\Users\noelp\Documents\GitHub\Proyecto 2\Assembly\Prueba1millon.X\PRB.asm
              PIXEL_Y_LOW   0x00002d       data     static C:\Users\noelp\Documents\GitHub\Proyecto 2\Assembly\Prueba1millon.X\PRB.asm
              PIXEL_Y_MID   0x00002e       data     static C:\Users\noelp\Documents\GitHub\Proyecto 2\Assembly\Prueba1millon.X\PRB.asm
               STATUS_RAM   0x00003a       data     static C:\Users\noelp\Documents\GitHub\Proyecto 2\Assembly\Prueba1millon.X\PRB.asm
                VALOR_BIN   0x000031       data     static C:\Users\noelp\Documents\GitHub\Proyecto 2\Assembly\Prueba1millon.X\PRB.asm
           VALOR_CENTENAS   0x000033       data     static C:\Users\noelp\Documents\GitHub\Proyecto 2\Assembly\Prueba1millon.X\PRB.asm
            VALOR_DECENAS   0x000032       data     static C:\Users\noelp\Documents\GitHub\Proyecto 2\Assembly\Prueba1millon.X\PRB.asm
           VALOR_UNIDADES   0x000034       data     static C:\Users\noelp\Documents\GitHub\Proyecto 2\Assembly\Prueba1millon.X\PRB.asm
                    W_RAM   0x00003b       data     static C:\Users\noelp\Documents\GitHub\Proyecto 2\Assembly\Prueba1millon.X\PRB.asm
                   X_HIGH   0x000024       data     static C:\Users\noelp\Documents\GitHub\Proyecto 2\Assembly\Prueba1millon.X\PRB.asm
                    X_LOW   0x000022       data     static C:\Users\noelp\Documents\GitHub\Proyecto 2\Assembly\Prueba1millon.X\PRB.asm
                    X_MID   0x000023       data     static C:\Users\noelp\Documents\GitHub\Proyecto 2\Assembly\Prueba1millon.X\PRB.asm
                   Y_HIGH   0x000027       data     static C:\Users\noelp\Documents\GitHub\Proyecto 2\Assembly\Prueba1millon.X\PRB.asm
                    Y_LOW   0x000025       data     static C:\Users\noelp\Documents\GitHub\Proyecto 2\Assembly\Prueba1millon.X\PRB.asm
                    Y_MID   0x000026       data     static C:\Users\noelp\Documents\GitHub\Proyecto 2\Assembly\Prueba1millon.X\PRB.asm



                              Symbols - Sorted by Address
                     Name    Address   Location    Storage File                     
                ---------  ---------  ---------  --------- ---------                
                     SAVE   0x000004    program     static C:\Users\noelp\Documents\GitHub\Proyecto 2\Assembly\Prueba1millon.X\PRB.asm
                      ISR   0x000007    program     static C:\Users\noelp\Documents\GitHub\Proyecto 2\Assembly\Prueba1millon.X\PRB.asm
                 INT_TMR0   0x00000d    program     static C:\Users\noelp\Documents\GitHub\Proyecto 2\Assembly\Prueba1millon.X\PRB.asm
                  INT_ADC   0x000013    program     static C:\Users\noelp\Documents\GitHub\Proyecto 2\Assembly\Prueba1millon.X\PRB.asm
               LECTURA_C1   0x00001a    program     static C:\Users\noelp\Documents\GitHub\Proyecto 2\Assembly\Prueba1millon.X\PRB.asm
                    FINAL   0x00001c    program     static C:\Users\noelp\Documents\GitHub\Proyecto 2\Assembly\Prueba1millon.X\PRB.asm
                   INT_RC   0x000023    program     static C:\Users\noelp\Documents\GitHub\Proyecto 2\Assembly\Prueba1millon.X\PRB.asm
                    VER_Y   0x000031    program     static C:\Users\noelp\Documents\GitHub\Proyecto 2\Assembly\Prueba1millon.X\PRB.asm
      GUARDAR_COORDENADAS   0x00003d    program     static C:\Users\noelp\Documents\GitHub\Proyecto 2\Assembly\Prueba1millon.X\PRB.asm
                   VALOR1   0x000043    program     static C:\Users\noelp\Documents\GitHub\Proyecto 2\Assembly\Prueba1millon.X\PRB.asm
                   VALOR2   0x000048    program     static C:\Users\noelp\Documents\GitHub\Proyecto 2\Assembly\Prueba1millon.X\PRB.asm
                   VALOR3   0x00004d    program     static C:\Users\noelp\Documents\GitHub\Proyecto 2\Assembly\Prueba1millon.X\PRB.asm
                     LOAD   0x000051    program     static C:\Users\noelp\Documents\GitHub\Proyecto 2\Assembly\Prueba1millon.X\PRB.asm
                    TABLA   0x000056    program     static C:\Users\noelp\Documents\GitHub\Proyecto 2\Assembly\Prueba1millon.X\PRB.asm
            MOSTRAR_DATOS   0x000069    program     static C:\Users\noelp\Documents\GitHub\Proyecto 2\Assembly\Prueba1millon.X\PRB.asm
                  PRIMERO   0x000073    program     static C:\Users\noelp\Documents\GitHub\Proyecto 2\Assembly\Prueba1millon.X\PRB.asm
                  SEGUNDO   0x000078    program     static C:\Users\noelp\Documents\GitHub\Proyecto 2\Assembly\Prueba1millon.X\PRB.asm
                  TERCERO   0x00007d    program     static C:\Users\noelp\Documents\GitHub\Proyecto 2\Assembly\Prueba1millon.X\PRB.asm
                   CUARTO   0x000082    program     static C:\Users\noelp\Documents\GitHub\Proyecto 2\Assembly\Prueba1millon.X\PRB.asm
                   QUINTO   0x000087    program     static C:\Users\noelp\Documents\GitHub\Proyecto 2\Assembly\Prueba1millon.X\PRB.asm
                    SEXTO   0x00008c    program     static C:\Users\noelp\Documents\GitHub\Proyecto 2\Assembly\Prueba1millon.X\PRB.asm
                    START   0x000091    program     static C:\Users\noelp\Documents\GitHub\Proyecto 2\Assembly\Prueba1millon.X\PRB.asm
                     LOOP   0x0000c1    program     static C:\Users\noelp\Documents\GitHub\Proyecto 2\Assembly\Prueba1millon.X\PRB.asm
             ENVIAR_DATOS   0x0000d5    program     static C:\Users\noelp\Documents\GitHub\Proyecto 2\Assembly\Prueba1millon.X\PRB.asm
                      UNO   0x0000e2    program     static C:\Users\noelp\Documents\GitHub\Proyecto 2\Assembly\Prueba1millon.X\PRB.asm
                      DOS   0x0000e4    program     static C:\Users\noelp\Documents\GitHub\Proyecto 2\Assembly\Prueba1millon.X\PRB.asm
                     TRES   0x0000e6    program     static C:\Users\noelp\Documents\GitHub\Proyecto 2\Assembly\Prueba1millon.X\PRB.asm
                   CUATRO   0x0000e8    program     static C:\Users\noelp\Documents\GitHub\Proyecto 2\Assembly\Prueba1millon.X\PRB.asm
                    CINCO   0x0000ea    program     static C:\Users\noelp\Documents\GitHub\Proyecto 2\Assembly\Prueba1millon.X\PRB.asm
                     SEIS   0x0000ec    program     static C:\Users\noelp\Documents\GitHub\Proyecto 2\Assembly\Prueba1millon.X\PRB.asm
                    SIETE   0x0000ee    program     static C:\Users\noelp\Documents\GitHub\Proyecto 2\Assembly\Prueba1millon.X\PRB.asm
                     OCHO   0x0000f0    program     static C:\Users\noelp\Documents\GitHub\Proyecto 2\Assembly\Prueba1millon.X\PRB.asm
                   ENVIAR   0x0000f2    program     static C:\Users\noelp\Documents\GitHub\Proyecto 2\Assembly\Prueba1millon.X\PRB.asm
          ENVIAR_SIN_SUMA   0x0000f3    program     static C:\Users\noelp\Documents\GitHub\Proyecto 2\Assembly\Prueba1millon.X\PRB.asm
     CONVERTIR_BIN_TO_BCD   0x0000f6    program     static C:\Users\noelp\Documents\GitHub\Proyecto 2\Assembly\Prueba1millon.X\PRB.asm
                 CENTENAS   0x0000f9    program     static C:\Users\noelp\Documents\GitHub\Proyecto 2\Assembly\Prueba1millon.X\PRB.asm
                  DECENAS   0x000100    program     static C:\Users\noelp\Documents\GitHub\Proyecto 2\Assembly\Prueba1millon.X\PRB.asm
                 UNIDADES   0x000107    program     static C:\Users\noelp\Documents\GitHub\Proyecto 2\Assembly\Prueba1millon.X\PRB.asm
                 CONTADOR   0x000020       data     static C:\Users\noelp\Documents\GitHub\Proyecto 2\Assembly\Prueba1millon.X\PRB.asm
                      MUX   0x000021       data     static C:\Users\noelp\Documents\GitHub\Proyecto 2\Assembly\Prueba1millon.X\PRB.asm
                    X_LOW   0x000022       data     static C:\Users\noelp\Documents\GitHub\Proyecto 2\Assembly\Prueba1millon.X\PRB.asm
                    X_MID   0x000023       data     static C:\Users\noelp\Documents\GitHub\Proyecto 2\Assembly\Prueba1millon.X\PRB.asm
                   X_HIGH   0x000024       data     static C:\Users\noelp\Documents\GitHub\Proyecto 2\Assembly\Prueba1millon.X\PRB.asm
                    Y_LOW   0x000025       data     static C:\Users\noelp\Documents\GitHub\Proyecto 2\Assembly\Prueba1millon.X\PRB.asm
                    Y_MID   0x000026       data     static C:\Users\noelp\Documents\GitHub\Proyecto 2\Assembly\Prueba1millon.X\PRB.asm
                   Y_HIGH   0x000027       data     static C:\Users\noelp\Documents\GitHub\Proyecto 2\Assembly\Prueba1millon.X\PRB.asm
                   ADC_C0   0x000028       data     static C:\Users\noelp\Documents\GitHub\Proyecto 2\Assembly\Prueba1millon.X\PRB.asm
                   ADC_C1   0x000029       data     static C:\Users\noelp\Documents\GitHub\Proyecto 2\Assembly\Prueba1millon.X\PRB.asm
              PIXEL_X_LOW   0x00002a       data     static C:\Users\noelp\Documents\GitHub\Proyecto 2\Assembly\Prueba1millon.X\PRB.asm
              PIXEL_X_MID   0x00002b       data     static C:\Users\noelp\Documents\GitHub\Proyecto 2\Assembly\Prueba1millon.X\PRB.asm
             PIXEL_X_HIGH   0x00002c       data     static C:\Users\noelp\Documents\GitHub\Proyecto 2\Assembly\Prueba1millon.X\PRB.asm
              PIXEL_Y_LOW   0x00002d       data     static C:\Users\noelp\Documents\GitHub\Proyecto 2\Assembly\Prueba1millon.X\PRB.asm
              PIXEL_Y_MID   0x00002e       data     static C:\Users\noelp\Documents\GitHub\Proyecto 2\Assembly\Prueba1millon.X\PRB.asm
             PIXEL_Y_HIGH   0x00002f       data     static C:\Users\noelp\Documents\GitHub\Proyecto 2\Assembly\Prueba1millon.X\PRB.asm
                    FLAGS   0x000030       data     static C:\Users\noelp\Documents\GitHub\Proyecto 2\Assembly\Prueba1millon.X\PRB.asm
                VALOR_BIN   0x000031       data     static C:\Users\noelp\Documents\GitHub\Proyecto 2\Assembly\Prueba1millon.X\PRB.asm
            VALOR_DECENAS   0x000032       data     static C:\Users\noelp\Documents\GitHub\Proyecto 2\Assembly\Prueba1millon.X\PRB.asm
           VALOR_CENTENAS   0x000033       data     static C:\Users\noelp\Documents\GitHub\Proyecto 2\Assembly\Prueba1millon.X\PRB.asm
           VALOR_UNIDADES   0x000034       data     static C:\Users\noelp\Documents\GitHub\Proyecto 2\Assembly\Prueba1millon.X\PRB.asm
                    DATO1   0x000035       data     static C:\Users\noelp\Documents\GitHub\Proyecto 2\Assembly\Prueba1millon.X\PRB.asm
                    DATO2   0x000036       data     static C:\Users\noelp\Documents\GitHub\Proyecto 2\Assembly\Prueba1millon.X\PRB.asm
                    DATO3   0x000037       data     static C:\Users\noelp\Documents\GitHub\Proyecto 2\Assembly\Prueba1millon.X\PRB.asm
        CONTADOR_RECEIVER   0x000038       data     static C:\Users\noelp\Documents\GitHub\Proyecto 2\Assembly\Prueba1millon.X\PRB.asm
                  DATOAUX   0x000039       data     static C:\Users\noelp\Documents\GitHub\Proyecto 2\Assembly\Prueba1millon.X\PRB.asm
               STATUS_RAM   0x00003a       data     static C:\Users\noelp\Documents\GitHub\Proyecto 2\Assembly\Prueba1millon.X\PRB.asm
                    W_RAM   0x00003b       data     static C:\Users\noelp\Documents\GitHub\Proyecto 2\Assembly\Prueba1millon.X\PRB.asm


